target datalayout = "e-m:e-p270:32:32-p271:32:32-p272:64:64-i64:64-i128:128-f80:128-n8:16:32:64-S128"
target triple = "x86_64-pc-linux-gnu"

%"class.metaspace::ChunkManager" = type { ptr, ptr, %"class.metaspace::FreeChunkListVector" }
%"class.metaspace::FreeChunkListVector" = type { [15 x %"class.metaspace::FreeChunkList"] }
%"class.metaspace::FreeChunkList" = type <{ ptr, ptr, %"class.metaspace::AbstractCounter", [4 x i8] }>
%"class.metaspace::AbstractCounter" = type { i32 }

@.str = private unnamed_addr constant [31 x i8] c"Metaspace not yet initialized.\00", align 1
@.str.4 = private unnamed_addr constant [7 x i8] c"Usage:\00", align 1
@.str.5 = private unnamed_addr constant [15 x i8] c"  Non-class:  \00", align 1
@.str.6 = private unnamed_addr constant [7 x i8] c" used.\00", align 1
@.str.7 = private unnamed_addr constant [15 x i8] c"      Class:  \00", align 1
@.str.8 = private unnamed_addr constant [15 x i8] c"       Both:  \00", align 1
@.str.9 = private unnamed_addr constant [15 x i8] c"Virtual space:\00", align 1
@.str.10 = private unnamed_addr constant [17 x i8] c"Chunk freelists:\00", align 1
@.str.11 = private unnamed_addr constant [16 x i8] c"   Non-Class:  \00", align 1
@.str.12 = private unnamed_addr constant [16 x i8] c"       Class:  \00", align 1
@.str.13 = private unnamed_addr constant [16 x i8] c"        Both:  \00", align 1
@.str.14 = private unnamed_addr constant [21 x i8] c"Internal statistics:\00", align 1
@UseCompressedClassPointers = external global i8, align 1

; Function Attrs: mustprogress nounwind uwtable
define linkonce_odr hidden noundef i64 @_ZNK9metaspace12ChunkManager15total_word_sizeEv(ptr noundef nonnull align 8 dereferenceable(376) %0) #1 comdat align 2 {
  %2 = alloca ptr, align 8
  store ptr %0, ptr %2, align 8
  %3 = load ptr, ptr %2, align 8
  %4 = getelementptr inbounds %"class.metaspace::ChunkManager", ptr %3, i32 0, i32 2
  %5 = call noundef i64 @_ZNK9metaspace19FreeChunkListVector9word_sizeEv(ptr noundef nonnull align 8 dereferenceable(360) %4)
  ret i64 %5
}

; Function Attrs: mustprogress nounwind uwtable
define linkonce_odr hidden noundef zeroext i1 @_ZN9Metaspace17using_class_spaceEv() #1 comdat align 2 {
  %1 = load i8, ptr @UseCompressedClassPointers, align 1
  %2 = trunc i8 %1 to i1
  ret i1 %2
}

; Function Attrs: mustprogress nounwind uwtable
define hidden void @_ZN9metaspace17MetaspaceReporter18print_basic_reportEP12outputStreamm(ptr noundef %0, i64 noundef %1) #1 align 2 {
  %3 = alloca ptr, align 8
  %4 = alloca i64, align 8
  %5 = alloca i64, align 8
  %6 = alloca i64, align 8
  %7 = alloca i64, align 8
  store ptr %0, ptr %3, align 8
  store i64 %1, ptr %4, align 8
  %8 = call noundef zeroext i1 @_ZN9Metaspace11initializedEv()
  br i1 %8, label %11, label %9

9:                                                ; preds = %2
  %10 = load ptr, ptr %3, align 8
  call void (ptr, ptr, ...) @_ZN12outputStream8print_crEPKcz(ptr noundef nonnull align 8 dereferenceable(56) %10, ptr noundef @.str)
  br label %85

11:                                               ; preds = %2
  %12 = load ptr, ptr %3, align 8
  call void @_ZN12outputStream2crEv(ptr noundef nonnull align 8 dereferenceable(56) %12)
  %13 = load ptr, ptr %3, align 8
  call void (ptr, ptr, ...) @_ZN12outputStream8print_crEPKcz(ptr noundef nonnull align 8 dereferenceable(56) %13, ptr noundef @.str.4)
  %14 = call noundef zeroext i1 @_ZN9Metaspace17using_class_spaceEv()
  br i1 %14, label %15, label %17

15:                                               ; preds = %11
  %16 = load ptr, ptr %3, align 8
  call void (ptr, ptr, ...) @_ZN12outputStream5printEPKcz(ptr noundef nonnull align 8 dereferenceable(56) %16, ptr noundef @.str.5)
  br label %17

17:                                               ; preds = %15, %11
  %18 = call noundef i64 @_ZN14MetaspaceUtils10used_wordsEN9Metaspace12MetadataTypeE(i32 noundef 1)
  store i64 %18, ptr %5, align 8
  %19 = load ptr, ptr %3, align 8
  %20 = load i64, ptr %5, align 8
  %21 = load i64, ptr %4, align 8
  call void @_ZN9metaspace18print_scaled_wordsEP12outputStreammmi(ptr noundef %19, i64 noundef %20, i64 noundef %21, i32 noundef 5)
  %22 = load ptr, ptr %3, align 8
  call void (ptr, ptr, ...) @_ZN12outputStream5printEPKcz(ptr noundef nonnull align 8 dereferenceable(56) %22, ptr noundef @.str.6)
  %23 = load ptr, ptr %3, align 8
  call void @_ZN12outputStream2crEv(ptr noundef nonnull align 8 dereferenceable(56) %23)
  %24 = call noundef zeroext i1 @_ZN9Metaspace17using_class_spaceEv()
  br i1 %24, label %25, label %42

25:                                               ; preds = %17
  %26 = call noundef i64 @_ZN14MetaspaceUtils10used_wordsEN9Metaspace12MetadataTypeE(i32 noundef 0)
  store i64 %26, ptr %6, align 8
  %27 = load ptr, ptr %3, align 8
  call void (ptr, ptr, ...) @_ZN12outputStream5printEPKcz(ptr noundef nonnull align 8 dereferenceable(56) %27, ptr noundef @.str.7)
  %28 = load ptr, ptr %3, align 8
  %29 = load i64, ptr %6, align 8
  %30 = load i64, ptr %4, align 8
  call void @_ZN9metaspace18print_scaled_wordsEP12outputStreammmi(ptr noundef %28, i64 noundef %29, i64 noundef %30, i32 noundef 5)
  %31 = load ptr, ptr %3, align 8
  call void (ptr, ptr, ...) @_ZN12outputStream5printEPKcz(ptr noundef nonnull align 8 dereferenceable(56) %31, ptr noundef @.str.6)
  %32 = load ptr, ptr %3, align 8
  call void @_ZN12outputStream2crEv(ptr noundef nonnull align 8 dereferenceable(56) %32)
  %33 = load ptr, ptr %3, align 8
  call void (ptr, ptr, ...) @_ZN12outputStream5printEPKcz(ptr noundef nonnull align 8 dereferenceable(56) %33, ptr noundef @.str.8)
  %34 = load i64, ptr %5, align 8
  %35 = load i64, ptr %6, align 8
  %36 = add i64 %34, %35
  store i64 %36, ptr %7, align 8
  %37 = load ptr, ptr %3, align 8
  %38 = load i64, ptr %7, align 8
  %39 = load i64, ptr %4, align 8
  call void @_ZN9metaspace18print_scaled_wordsEP12outputStreammmi(ptr noundef %37, i64 noundef %38, i64 noundef %39, i32 noundef 5)
  %40 = load ptr, ptr %3, align 8
  call void (ptr, ptr, ...) @_ZN12outputStream5printEPKcz(ptr noundef nonnull align 8 dereferenceable(56) %40, ptr noundef @.str.6)
  %41 = load ptr, ptr %3, align 8
  call void @_ZN12outputStream2crEv(ptr noundef nonnull align 8 dereferenceable(56) %41)
  br label %42

42:                                               ; preds = %25, %17
  %43 = load ptr, ptr %3, align 8
  call void @_ZN12outputStream2crEv(ptr noundef nonnull align 8 dereferenceable(56) %43)
  %44 = load ptr, ptr %3, align 8
  call void (ptr, ptr, ...) @_ZN12outputStream8print_crEPKcz(ptr noundef nonnull align 8 dereferenceable(56) %44, ptr noundef @.str.9)
  %45 = load ptr, ptr %3, align 8
  %46 = load i64, ptr %4, align 8
  call void @_ZN9metaspaceL8print_vsEP12outputStreamm(ptr noundef %45, i64 noundef %46)
  %47 = load ptr, ptr %3, align 8
  call void @_ZN12outputStream2crEv(ptr noundef nonnull align 8 dereferenceable(56) %47)
  %48 = load ptr, ptr %3, align 8
  call void (ptr, ptr, ...) @_ZN12outputStream8print_crEPKcz(ptr noundef nonnull align 8 dereferenceable(56) %48, ptr noundef @.str.10)
  %49 = call noundef zeroext i1 @_ZN9Metaspace17using_class_spaceEv()
  br i1 %49, label %50, label %52

50:                                               ; preds = %42
  %51 = load ptr, ptr %3, align 8
  call void (ptr, ptr, ...) @_ZN12outputStream5printEPKcz(ptr noundef nonnull align 8 dereferenceable(56) %51, ptr noundef @.str.11)
  br label %52

52:                                               ; preds = %50, %42
  %53 = load ptr, ptr %3, align 8
  %54 = call noundef ptr @_ZN9metaspace12ChunkManager21chunkmanager_nonclassEv()
  %55 = call noundef i64 @_ZNK9metaspace12ChunkManager15total_word_sizeEv(ptr noundef nonnull align 8 dereferenceable(376) %54)
  %56 = load i64, ptr %4, align 8
  call void @_ZN9metaspace18print_scaled_wordsEP12outputStreammmi(ptr noundef %53, i64 noundef %55, i64 noundef %56, i32 noundef -1)
  %57 = load ptr, ptr %3, align 8
  call void @_ZN12outputStream2crEv(ptr noundef nonnull align 8 dereferenceable(56) %57)
  %58 = call noundef zeroext i1 @_ZN9Metaspace17using_class_spaceEv()
  br i1 %58, label %59, label %75

59:                                               ; preds = %52
  %60 = load ptr, ptr %3, align 8
  call void (ptr, ptr, ...) @_ZN12outputStream5printEPKcz(ptr noundef nonnull align 8 dereferenceable(56) %60, ptr noundef @.str.12)
  %61 = load ptr, ptr %3, align 8
  %62 = call noundef ptr @_ZN9metaspace12ChunkManager18chunkmanager_classEv()
  %63 = call noundef i64 @_ZNK9metaspace12ChunkManager15total_word_sizeEv(ptr noundef nonnull align 8 dereferenceable(376) %62)
  %64 = load i64, ptr %4, align 8
  call void @_ZN9metaspace18print_scaled_wordsEP12outputStreammmi(ptr noundef %61, i64 noundef %63, i64 noundef %64, i32 noundef -1)
  %65 = load ptr, ptr %3, align 8
  call void @_ZN12outputStream2crEv(ptr noundef nonnull align 8 dereferenceable(56) %65)
  %66 = load ptr, ptr %3, align 8
  call void (ptr, ptr, ...) @_ZN12outputStream5printEPKcz(ptr noundef nonnull align 8 dereferenceable(56) %66, ptr noundef @.str.13)
  %67 = load ptr, ptr %3, align 8
  %68 = call noundef ptr @_ZN9metaspace12ChunkManager21chunkmanager_nonclassEv()
  %69 = call noundef i64 @_ZNK9metaspace12ChunkManager15total_word_sizeEv(ptr noundef nonnull align 8 dereferenceable(376) %68)
  %70 = call noundef ptr @_ZN9metaspace12ChunkManager18chunkmanager_classEv()
  %71 = call noundef i64 @_ZNK9metaspace12ChunkManager15total_word_sizeEv(ptr noundef nonnull align 8 dereferenceable(376) %70)
  %72 = add i64 %69, %71
  %73 = load i64, ptr %4, align 8
  call void @_ZN9metaspace18print_scaled_wordsEP12outputStreammmi(ptr noundef %67, i64 noundef %72, i64 noundef %73, i32 noundef -1)
  %74 = load ptr, ptr %3, align 8
  call void @_ZN12outputStream2crEv(ptr noundef nonnull align 8 dereferenceable(56) %74)
  br label %75

75:                                               ; preds = %59, %52
  %76 = load ptr, ptr %3, align 8
  call void @_ZN12outputStream2crEv(ptr noundef nonnull align 8 dereferenceable(56) %76)
  %77 = load ptr, ptr %3, align 8
  %78 = load i64, ptr %4, align 8
  call void @_ZN9metaspaceL14print_settingsEP12outputStreamm(ptr noundef %77, i64 noundef %78)
  %79 = load ptr, ptr %3, align 8
  call void @_ZN12outputStream2crEv(ptr noundef nonnull align 8 dereferenceable(56) %79)
  %80 = load ptr, ptr %3, align 8
  call void @_ZN12outputStream2crEv(ptr noundef nonnull align 8 dereferenceable(56) %80)
  %81 = load ptr, ptr %3, align 8
  call void (ptr, ptr, ...) @_ZN12outputStream8print_crEPKcz(ptr noundef nonnull align 8 dereferenceable(56) %81, ptr noundef @.str.14)
  %82 = load ptr, ptr %3, align 8
  call void @_ZN12outputStream2crEv(ptr noundef nonnull align 8 dereferenceable(56) %82)
  %83 = load ptr, ptr %3, align 8
  call void @_ZN9metaspace13InternalStats8print_onEP12outputStream(ptr noundef %83)
  %84 = load ptr, ptr %3, align 8
  call void @_ZN12outputStream2crEv(ptr noundef nonnull align 8 dereferenceable(56) %84)
  br label %85

85:                                               ; preds = %75, %9
  ret void
}