; Function Attrs: mustprogress nounwind uwtable
define hidden void @_ZN9metaspace17MetaspaceReporter18print_basic_reportEP12outputStreamm(ptr noundef %0, i64 noundef %1) local_unnamed_addr #0 align 2 {
  %3 = tail call noundef zeroext i1 @_ZN9Metaspace11initializedEv() #3
  br i1 %3, label %5, label %4

4:                                                ; preds = %2
  tail call void (ptr, ptr, ...) @_ZN12outputStream8print_crEPKcz(ptr noundef nonnull align 8 dereferenceable(56) %0, ptr noundef nonnull @.str) #3
  br label %38

5:                                                ; preds = %2
  tail call void @_ZN12outputStream2crEv(ptr noundef nonnull align 8 dereferenceable(56) %0) #3
  tail call void (ptr, ptr, ...) @_ZN12outputStream8print_crEPKcz(ptr noundef nonnull align 8 dereferenceable(56) %0, ptr noundef nonnull @.str.4) #3
  %6 = load i8, ptr @UseCompressedClassPointers, align 1
  %7 = trunc i8 %6 to i1
  br i1 %7, label %8, label %9

8:                                                ; preds = %5
  tail call void (ptr, ptr, ...) @_ZN12outputStream5printEPKcz(ptr noundef nonnull align 8 dereferenceable(56) %0, ptr noundef nonnull @.str.5) #3
  br label %9

9:                                                ; preds = %8, %5
  %10 = tail call noundef i64 @_ZN14MetaspaceUtils10used_wordsEN9Metaspace12MetadataTypeE(i32 noundef 1) #3
  tail call void @_ZN9metaspace18print_scaled_wordsEP12outputStreammmi(ptr noundef nonnull %0, i64 noundef %10, i64 noundef %1, i32 noundef 5) #3
  tail call void (ptr, ptr, ...) @_ZN12outputStream5printEPKcz(ptr noundef nonnull align 8 dereferenceable(56) %0, ptr noundef nonnull @.str.6) #3
  tail call void @_ZN12outputStream2crEv(ptr noundef nonnull align 8 dereferenceable(56) %0) #3
  %11 = load i8, ptr @UseCompressedClassPointers, align 1
  %12 = trunc i8 %11 to i1
  br i1 %12, label %13, label %16

13:                                               ; preds = %9
  %14 = tail call noundef i64 @_ZN14MetaspaceUtils10used_wordsEN9Metaspace12MetadataTypeE(i32 noundef 0) #3
  tail call void (ptr, ptr, ...) @_ZN12outputStream5printEPKcz(ptr noundef nonnull align 8 dereferenceable(56) %0, ptr noundef nonnull @.str.7) #3
  tail call void @_ZN9metaspace18print_scaled_wordsEP12outputStreammmi(ptr noundef nonnull %0, i64 noundef %14, i64 noundef %1, i32 noundef 5) #3
  tail call void (ptr, ptr, ...) @_ZN12outputStream5printEPKcz(ptr noundef nonnull align 8 dereferenceable(56) %0, ptr noundef nonnull @.str.6) #3
  tail call void @_ZN12outputStream2crEv(ptr noundef nonnull align 8 dereferenceable(56) %0) #3
  tail call void (ptr, ptr, ...) @_ZN12outputStream5printEPKcz(ptr noundef nonnull align 8 dereferenceable(56) %0, ptr noundef nonnull @.str.8) #3
  %15 = add i64 %14, %10
  tail call void @_ZN9metaspace18print_scaled_wordsEP12outputStreammmi(ptr noundef nonnull %0, i64 noundef %15, i64 noundef %1, i32 noundef 5) #3
  tail call void (ptr, ptr, ...) @_ZN12outputStream5printEPKcz(ptr noundef nonnull align 8 dereferenceable(56) %0, ptr noundef nonnull @.str.6) #3
  tail call void @_ZN12outputStream2crEv(ptr noundef nonnull align 8 dereferenceable(56) %0) #3
  br label %16

16:                                               ; preds = %13, %9
  tail call void @_ZN12outputStream2crEv(ptr noundef nonnull align 8 dereferenceable(56) %0) #3
  tail call void (ptr, ptr, ...) @_ZN12outputStream8print_crEPKcz(ptr noundef nonnull align 8 dereferenceable(56) %0, ptr noundef nonnull @.str.9) #3
  tail call fastcc void @_ZN9metaspaceL8print_vsEP12outputStreamm(ptr noundef nonnull %0, i64 noundef %1)
  tail call void @_ZN12outputStream2crEv(ptr noundef nonnull align 8 dereferenceable(56) %0) #3
  tail call void (ptr, ptr, ...) @_ZN12outputStream8print_crEPKcz(ptr noundef nonnull align 8 dereferenceable(56) %0, ptr noundef nonnull @.str.10) #3
  %17 = load i8, ptr @UseCompressedClassPointers, align 1
  %18 = trunc i8 %17 to i1
  br i1 %18, label %19, label %20

19:                                               ; preds = %16
  tail call void (ptr, ptr, ...) @_ZN12outputStream5printEPKcz(ptr noundef nonnull align 8 dereferenceable(56) %0, ptr noundef nonnull @.str.11) #3
  br label %20

20:                                               ; preds = %19, %16
  %21 = tail call noundef ptr @_ZN9metaspace12ChunkManager21chunkmanager_nonclassEv() #3
  %22 = getelementptr inbounds i8, ptr %21, i64 16
  %23 = tail call noundef i64 @_ZNK9metaspace19FreeChunkListVector9word_sizeEv(ptr noundef nonnull align 8 dereferenceable(360) %22) #3
  tail call void @_ZN9metaspace18print_scaled_wordsEP12outputStreammmi(ptr noundef nonnull %0, i64 noundef %23, i64 noundef %1, i32 noundef -1) #3
  tail call void @_ZN12outputStream2crEv(ptr noundef nonnull align 8 dereferenceable(56) %0) #3
  %24 = load i8, ptr @UseCompressedClassPointers, align 1
  %25 = trunc i8 %24 to i1
  br i1 %25, label %26, label %37

26:                                               ; preds = %20
  tail call void (ptr, ptr, ...) @_ZN12outputStream5printEPKcz(ptr noundef nonnull align 8 dereferenceable(56) %0, ptr noundef nonnull @.str.12) #3
  %27 = tail call noundef ptr @_ZN9metaspace12ChunkManager18chunkmanager_classEv() #3
  %28 = getelementptr inbounds i8, ptr %27, i64 16
  %29 = tail call noundef i64 @_ZNK9metaspace19FreeChunkListVector9word_sizeEv(ptr noundef nonnull align 8 dereferenceable(360) %28) #3
  tail call void @_ZN9metaspace18print_scaled_wordsEP12outputStreammmi(ptr noundef nonnull %0, i64 noundef %29, i64 noundef %1, i32 noundef -1) #3
  tail call void @_ZN12outputStream2crEv(ptr noundef nonnull align 8 dereferenceable(56) %0) #3
  tail call void (ptr, ptr, ...) @_ZN12outputStream5printEPKcz(ptr noundef nonnull align 8 dereferenceable(56) %0, ptr noundef nonnull @.str.13) #3
  %30 = tail call noundef ptr @_ZN9metaspace12ChunkManager21chunkmanager_nonclassEv() #3
  %31 = getelementptr inbounds i8, ptr %30, i64 16
  %32 = tail call noundef i64 @_ZNK9metaspace19FreeChunkListVector9word_sizeEv(ptr noundef nonnull align 8 dereferenceable(360) %31) #3
  %33 = tail call noundef ptr @_ZN9metaspace12ChunkManager18chunkmanager_classEv() #3
  %34 = getelementptr inbounds i8, ptr %33, i64 16
  %35 = tail call noundef i64 @_ZNK9metaspace19FreeChunkListVector9word_sizeEv(ptr noundef nonnull align 8 dereferenceable(360) %34) #3
  %36 = add i64 %35, %32
  tail call void @_ZN9metaspace18print_scaled_wordsEP12outputStreammmi(ptr noundef nonnull %0, i64 noundef %36, i64 noundef %1, i32 noundef -1) #3
  tail call void @_ZN12outputStream2crEv(ptr noundef nonnull align 8 dereferenceable(56) %0) #3
  br label %37

37:                                               ; preds = %26, %20
  tail call void @_ZN12outputStream2crEv(ptr noundef nonnull align 8 dereferenceable(56) %0) #3
  tail call fastcc void @_ZN9metaspaceL14print_settingsEP12outputStreamm(ptr noundef nonnull %0, i64 noundef %1)
  tail call void @_ZN12outputStream2crEv(ptr noundef nonnull align 8 dereferenceable(56) %0) #3
  tail call void @_ZN12outputStream2crEv(ptr noundef nonnull align 8 dereferenceable(56) %0) #3
  tail call void (ptr, ptr, ...) @_ZN12outputStream8print_crEPKcz(ptr noundef nonnull align 8 dereferenceable(56) %0, ptr noundef nonnull @.str.14) #3
  tail call void @_ZN12outputStream2crEv(ptr noundef nonnull align 8 dereferenceable(56) %0) #3
  tail call void @_ZN9metaspace13InternalStats8print_onEP12outputStream(ptr noundef nonnull %0) #3
  tail call void @_ZN12outputStream2crEv(ptr noundef nonnull align 8 dereferenceable(56) %0) #3
  br label %38

38:                                               ; preds = %37, %4
  ret void
}